target datalayout = "e-m:e-p270:32:32-p271:32:32-p272:64:64-i64:64-i128:128-f80:128-n8:16:32:64-S128"
target triple = "x86_64-pc-linux-gnu"

%union.pthread_mutex_t = type { %struct.__pthread_mutex_s }
%struct.__pthread_mutex_s = type { i32, i32, i32, i32, i32, i16, i16, %struct.__pthread_internal_list }
%struct.__pthread_internal_list = type { ptr, ptr }
%union.pthread_cond_t = type { %struct.__pthread_cond_s }
%struct.__pthread_cond_s = type { %union.__atomic_wide_counter, %union.__atomic_wide_counter, [2 x i32], [2 x i32], i32, i32, [2 x i32] }
%union.__atomic_wide_counter = type { i64 }
%struct.persist_msg_t = type { ptr, ptr, i16 }

@slurmdbd_conn = dso_local global ptr null, align 8
@slurmdbd_lock = internal global %union.pthread_mutex_t zeroinitializer, align 8
@.str = private unnamed_addr constant [29 x i8] c"%s: pthread_mutex_lock(): %m\00", align 1
@.str.1 = private unnamed_addr constant [31 x i8] c"%s: pthread_mutex_unlock(): %m\00", align 1
@halt_agent = internal global i8 0, align 1
@__func__.slurmdbd_agent_send_recv = private unnamed_addr constant [25 x i8] c"slurmdbd_agent_send_recv\00", align 1
@slurmdbd_cond = internal global %union.pthread_cond_t zeroinitializer, align 8
@.str.2 = private unnamed_addr constant [36 x i8] c"%s:%d %s: pthread_cond_signal(): %m\00", align 1
@.str.3 = private unnamed_addr constant [17 x i8] c"slurmdbd_agent.c\00", align 1
@.str.4 = private unnamed_addr constant [38 x i8] c"We are overriding the connection!!!!!\00", align 1

; Function Attrs: nounwind uwtable
define dso_local i32 @slurmdbd_agent_send_recv(i16 noundef zeroext %0, ptr noundef %1, ptr noundef %2) #0 {
  %4 = alloca i32, align 4
  %5 = alloca i16, align 2
  %6 = alloca ptr, align 8
  %7 = alloca ptr, align 8
  %8 = alloca i32, align 4
  %9 = alloca i32, align 4
  %10 = alloca i32, align 4
  %11 = alloca i32, align 4
  %12 = alloca i32, align 4
  %13 = alloca i32, align 4
  %14 = alloca i32, align 4
  store i16 %0, ptr %5, align 2
  store ptr %1, ptr %6, align 8
  store ptr %2, ptr %7, align 8
  call void @llvm.lifetime.start.p0(i64 4, ptr %8) #9
  store i32 0, ptr %8, align 4
  store i8 1, ptr @halt_agent, align 1
  br label %15

15:                                               ; preds = %3
  call void @llvm.lifetime.start.p0(i64 4, ptr %9) #9
  %16 = call i32 @pthread_mutex_lock(ptr noundef @slurmdbd_lock) #9
  store i32 %16, ptr %9, align 4
  %17 = load i32, ptr %9, align 4
  %18 = icmp ne i32 %17, 0
  br i1 %18, label %19, label %22

19:                                               ; preds = %15
  %20 = load i32, ptr %9, align 4
  %21 = call ptr @__errno_location() #10
  store i32 %20, ptr %21, align 4
  call void (ptr, ...) @slurm_fatal_abort(ptr noundef @.str, ptr noundef @__func__.slurmdbd_agent_send_recv) #11
  unreachable

22:                                               ; preds = %15
  call void @llvm.lifetime.end.p0(i64 4, ptr %9) #9
  br label %23

23:                                               ; preds = %22
  br label %24

24:                                               ; preds = %23
  store i8 0, ptr @halt_agent, align 1
  %25 = load ptr, ptr @slurmdbd_conn, align 8
  %26 = icmp ne ptr %25, null
  br i1 %26, label %49, label %27

27:                                               ; preds = %24
  br label %28

28:                                               ; preds = %27
  call void @llvm.lifetime.start.p0(i64 4, ptr %10) #9
  %29 = call i32 @pthread_cond_signal(ptr noundef @slurmdbd_cond) #9
  store i32 %29, ptr %10, align 4
  %30 = load i32, ptr %10, align 4
  %31 = icmp ne i32 %30, 0
  br i1 %31, label %32, label %36

32:                                               ; preds = %28
  %33 = load i32, ptr %10, align 4
  %34 = call ptr @__errno_location() #10
  store i32 %33, ptr %34, align 4
  %35 = call i32 (ptr, ...) @slurm_error(ptr noundef @.str.2, ptr noundef @.str.3, i32 noundef 959, ptr noundef @__func__.slurmdbd_agent_send_recv)
  br label %36

36:                                               ; preds = %32, %28
  call void @llvm.lifetime.end.p0(i64 4, ptr %10) #9
  br label %37

37:                                               ; preds = %36
  br label %38

38:                                               ; preds = %37
  br label %39

39:                                               ; preds = %38
  call void @llvm.lifetime.start.p0(i64 4, ptr %11) #9
  %40 = call i32 @pthread_mutex_unlock(ptr noundef @slurmdbd_lock) #9
  store i32 %40, ptr %11, align 4
  %41 = load i32, ptr %11, align 4
  %42 = icmp ne i32 %41, 0
  br i1 %42, label %43, label %46

43:                                               ; preds = %39
  %44 = load i32, ptr %11, align 4
  %45 = call ptr @__errno_location() #10
  store i32 %44, ptr %45, align 4
  call void (ptr, ...) @slurm_fatal_abort(ptr noundef @.str.1, ptr noundef @__func__.slurmdbd_agent_send_recv) #11
  unreachable

46:                                               ; preds = %39
  call void @llvm.lifetime.end.p0(i64 4, ptr %11) #9
  br label %47

47:                                               ; preds = %46
  br label %48

48:                                               ; preds = %47
  store i32 7008, ptr %4, align 4
  store i32 1, ptr %12, align 4
  br label %92

49:                                               ; preds = %24
  %50 = load ptr, ptr %6, align 8
  %51 = getelementptr inbounds nuw %struct.persist_msg_t, ptr %50, i32 0, i32 0
  %52 = load ptr, ptr %51, align 8
  %53 = icmp ne ptr %52, null
  br i1 %53, label %54, label %62

54:                                               ; preds = %49
  %55 = load ptr, ptr %6, align 8
  %56 = getelementptr inbounds nuw %struct.persist_msg_t, ptr %55, i32 0, i32 0
  %57 = load ptr, ptr %56, align 8
  %58 = load ptr, ptr @slurmdbd_conn, align 8
  %59 = icmp ne ptr %57, %58
  br i1 %59, label %60, label %62

60:                                               ; preds = %54
  %61 = call i32 (ptr, ...) @slurm_error(ptr noundef @.str.4)
  br label %62

62:                                               ; preds = %60, %54, %49
  %63 = load ptr, ptr @slurmdbd_conn, align 8
  %64 = load ptr, ptr %6, align 8
  %65 = getelementptr inbounds nuw %struct.persist_msg_t, ptr %64, i32 0, i32 0
  store ptr %63, ptr %65, align 8
  %66 = load i16, ptr %5, align 2
  %67 = load ptr, ptr %6, align 8
  %68 = load ptr, ptr %7, align 8
  %69 = call i32 @dbd_conn_send_recv_direct(i16 noundef zeroext %66, ptr noundef %67, ptr noundef %68)
  store i32 %69, ptr %8, align 4
  br label %70

70:                                               ; preds = %62
  call void @llvm.lifetime.start.p0(i64 4, ptr %13) #9
  %71 = call i32 @pthread_cond_signal(ptr noundef @slurmdbd_cond) #9
  store i32 %71, ptr %13, align 4
  %72 = load i32, ptr %13, align 4
  %73 = icmp ne i32 %72, 0
  br i1 %73, label %74, label %78

74:                                               ; preds = %70
  %75 = load i32, ptr %13, align 4
  %76 = call ptr @__errno_location() #10
  store i32 %75, ptr %76, align 4
  %77 = call i32 (ptr, ...) @slurm_error(ptr noundef @.str.2, ptr noundef @.str.3, i32 noundef 971, ptr noundef @__func__.slurmdbd_agent_send_recv)
  br label %78

78:                                               ; preds = %74, %70
  call void @llvm.lifetime.end.p0(i64 4, ptr %13) #9
  br label %79

79:                                               ; preds = %78
  br label %80

80:                                               ; preds = %79
  br label %81

81:                                               ; preds = %80
  call void @llvm.lifetime.start.p0(i64 4, ptr %14) #9
  %82 = call i32 @pthread_mutex_unlock(ptr noundef @slurmdbd_lock) #9
  store i32 %82, ptr %14, align 4
  %83 = load i32, ptr %14, align 4
  %84 = icmp ne i32 %83, 0
  br i1 %84, label %85, label %88

85:                                               ; preds = %81
  %86 = load i32, ptr %14, align 4
  %87 = call ptr @__errno_location() #10
  store i32 %86, ptr %87, align 4
  call void (ptr, ...) @slurm_fatal_abort(ptr noundef @.str.1, ptr noundef @__func__.slurmdbd_agent_send_recv) #11
  unreachable

88:                                               ; preds = %81
  call void @llvm.lifetime.end.p0(i64 4, ptr %14) #9
  br label %89

89:                                               ; preds = %88
  br label %90

90:                                               ; preds = %89
  %91 = load i32, ptr %8, align 4
  store i32 %91, ptr %4, align 4
  store i32 1, ptr %12, align 4
  br label %92

92:                                               ; preds = %90, %48
  call void @llvm.lifetime.end.p0(i64 4, ptr %8) #9
  %93 = load i32, ptr %4, align 4
  ret i32 %93
}