; Function Attrs: nounwind uwtable
define dso_local i32 @slurmdbd_agent_send_recv(i16 noundef zeroext %0, ptr noundef %1, ptr noundef %2) local_unnamed_addr #0 {
  store i1 true, ptr @halt_agent, align 1
  %4 = tail call i32 @pthread_mutex_lock(ptr noundef nonnull @slurmdbd_lock) #13
  %.not = icmp eq i32 %4, 0
  br i1 %.not, label %7, label %5

5:                                                ; preds = %3
  %6 = tail call ptr @__errno_location() #14
  store i32 %4, ptr %6, align 4
  tail call void (ptr, ...) @slurm_fatal_abort(ptr noundef nonnull @.str, ptr noundef nonnull @__func__.slurmdbd_agent_send_recv) #15
  unreachable

7:                                                ; preds = %3
  store i1 false, ptr @halt_agent, align 1
  %8 = load ptr, ptr @slurmdbd_conn, align 8
  %.not24 = icmp eq ptr %8, null
  br i1 %.not24, label %9, label %18

9:                                                ; preds = %7
  %10 = tail call i32 @pthread_cond_signal(ptr noundef nonnull @slurmdbd_cond) #13
  %.not25 = icmp eq i32 %10, 0
  br i1 %.not25, label %14, label %11

11:                                               ; preds = %9
  %12 = tail call ptr @__errno_location() #14
  store i32 %10, ptr %12, align 4
  %13 = tail call i32 (ptr, ...) @slurm_error(ptr noundef nonnull @.str.2, ptr noundef nonnull @.str.3, i32 noundef 959, ptr noundef nonnull @__func__.slurmdbd_agent_send_recv) #13
  br label %14

14:                                               ; preds = %11, %9
  %15 = tail call i32 @pthread_mutex_unlock(ptr noundef nonnull @slurmdbd_lock) #13
  %.not26 = icmp eq i32 %15, 0
  br i1 %.not26, label %33, label %16

16:                                               ; preds = %14
  %17 = tail call ptr @__errno_location() #14
  store i32 %15, ptr %17, align 4
  tail call void (ptr, ...) @slurm_fatal_abort(ptr noundef nonnull @.str.1, ptr noundef nonnull @__func__.slurmdbd_agent_send_recv) #15
  unreachable

18:                                               ; preds = %7
  %19 = load ptr, ptr %1, align 8
  %.not27 = icmp eq ptr %19, null
  %.not28 = icmp eq ptr %19, %8
  %or.cond = or i1 %.not27, %.not28
  br i1 %or.cond, label %22, label %20

20:                                               ; preds = %18
  %21 = tail call i32 (ptr, ...) @slurm_error(ptr noundef nonnull @.str.4) #13
  %.pre = load ptr, ptr @slurmdbd_conn, align 8
  br label %22

22:                                               ; preds = %20, %18
  %23 = phi ptr [ %.pre, %20 ], [ %8, %18 ]
  store ptr %23, ptr %1, align 8
  %24 = tail call i32 @dbd_conn_send_recv_direct(i16 noundef zeroext %0, ptr noundef nonnull %1, ptr noundef %2) #13
  %25 = tail call i32 @pthread_cond_signal(ptr noundef nonnull @slurmdbd_cond) #13
  %.not29 = icmp eq i32 %25, 0
  br i1 %.not29, label %29, label %26

26:                                               ; preds = %22
  %27 = tail call ptr @__errno_location() #14
  store i32 %25, ptr %27, align 4
  %28 = tail call i32 (ptr, ...) @slurm_error(ptr noundef nonnull @.str.2, ptr noundef nonnull @.str.3, i32 noundef 971, ptr noundef nonnull @__func__.slurmdbd_agent_send_recv) #13
  br label %29

29:                                               ; preds = %26, %22
  %30 = tail call i32 @pthread_mutex_unlock(ptr noundef nonnull @slurmdbd_lock) #13
  %.not30 = icmp eq i32 %30, 0
  br i1 %.not30, label %33, label %31

31:                                               ; preds = %29
  %32 = tail call ptr @__errno_location() #14
  store i32 %30, ptr %32, align 4
  tail call void (ptr, ...) @slurm_fatal_abort(ptr noundef nonnull @.str.1, ptr noundef nonnull @__func__.slurmdbd_agent_send_recv) #15
  unreachable

33:                                               ; preds = %29, %14
  %.0 = phi i32 [ 7008, %14 ], [ %24, %29 ]
  ret i32 %.0
}